target datalayout = "e-m:e-p270:32:32-p271:32:32-p272:64:64-i64:64-i128:128-f80:128-n8:16:32:64-S128"
target triple = "x86_64-pc-linux-gnu"

%struct.redisServer = type { i32, i64, ptr, ptr, ptr, i32, i32, i32, i32, i32, ptr, ptr, ptr, ptr, ptr, i32, i32, i32, i32, i64, i32, i32, i32, i32, ptr, i32, i32, [41 x i8], i32, i64, i32, i32, i32, ptr, ptr, i32, i32, i64, ptr, ptr, ptr, ptr, [2 x i32], i32, i32, i32, i32, i32, i32, [16 x ptr], i32, ptr, ptr, i32, [8 x %struct.connListener], i32, %struct.connListener, ptr, ptr, ptr, ptr, ptr, ptr, ptr, ptr, ptr, ptr, i32, ptr, i32, ptr, [3 x %struct.pause_event], [256 x i8], ptr, i64, i32, i32, [128 x i32], i32, i32, i64, i32, i32, i32, i32, i32, i64, i64, i64, i64, i64, i64, i64, i64, i64, i64, double, i64, i64, i64, i64, i64, i64, i64, i64, i64, i64, i64, i64, i64, i64, i64, i64, i64, i64, i64, i64, i64, double, i64, i64, i64, i64, i64, ptr, i64, i64, i64, %struct.malloc_stats, i64, i64, i64, i64, i64, i64, i64, i64, i64, i64, i64, i64, double, [4 x i64], i64, i64, i64, i64, [128 x i64], [128 x i64], i64, i64, [7 x %struct.anon], i64, i64, i64, i64, i64, i64, [4 x %struct.durationStats], i32, i32, i32, i32, i32, i32, i32, i32, i32, i32, i32, i32, i64, i32, i32, i32, i32, i64, i64, i32, i32, i32, i32, i32, ptr, [3 x %struct.clientBufferLimitsConfig], i32, i32, i32, ptr, i32, i32, i32, i32, i32, i32, ptr, ptr, i32, i32, i64, i64, i64, i64, i64, i32, i32, ptr, i32, i32, i64, i64, i64, i64, i64, i32, i32, i64, i32, i32, i32, i32, i32, i32, i32, i32, ptr, i32, i64, i64, i64, i64, i32, ptr, i32, ptr, i32, i32, i32, i64, i64, i64, i64, i32, i32, i32, i32, i32, i32, ptr, i32, i32, ptr, i32, i32, i32, [2 x i32], i32, %struct.redisOpArray, i32, ptr, i32, ptr, i32, i32, i32, i32, i32, i32, i32, [41 x i8], [41 x i8], i64, i64, i64, i64, i32, i32, ptr, i64, i64, %struct.replDataBuf, i64, i64, i32, i32, i32, i32, i32, i32, i32, i32, i32, i64, ptr, i64, ptr, ptr, ptr, i32, i32, ptr, ptr, i32, i32, i32, i64, i64, i64, i64, ptr, ptr, i32, ptr, i64, i32, i32, i32, i64, i32, i32, i32, i32, ptr, i32, i32, [41 x i8], i64, i32, ptr, i32, i32, i64, i64, i32, i32, i32, i32, i32, i64, [3 x i32], i32, i32, i32, [10 x i32], ptr, ptr, i32, i64, ptr, ptr, i32, i32, i32, i32, i64, i64, i64, i64, i64, i64, i64, i64, i64, i64, i32, i32, i64, i64, i32, i64, i64, i64, i64, i64, ptr, ptr, i32, ptr, i32, i32, i32, i32, i64, i64, ptr, ptr, i32, i32, i32, i32, i32, ptr, ptr, ptr, i32, i32, i32, i32, i32, i32, i32, i64, i32, i32, i64, i32, i32, i32, i32, i32, i32, i32, i64, ptr, ptr, i64, ptr, i32, %struct.aclInfo, i32, i64, i32, i32, i32, %struct.redisTLSContextConfig, ptr, ptr, ptr, ptr, ptr, i64, i32, ptr, i32, i32, i32, i64, i32, ptr }
%struct.connListener = type { [16 x i32], i32, ptr, i32, i32, ptr, ptr }
%struct.pause_event = type { i32, i64 }
%struct.malloc_stats = type { i64, i64, i64, i64, i64, i64, i64, i64, i64, i64, i64 }
%struct.anon = type { i64, i64, [16 x i64], i32 }
%struct.durationStats = type { i64, i64, i64 }
%struct.clientBufferLimitsConfig = type { i64, i64, i64 }
%struct.redisOpArray = type { ptr, i32, i32 }
%struct.replDataBuf = type { ptr, i64, i64, i64, i64 }
%struct.aclInfo = type { i64, i64, i64, i64 }
%struct.redisTLSContextConfig = type { ptr, ptr, ptr, ptr, ptr, ptr, ptr, ptr, ptr, ptr, ptr, ptr, i32, i32, i32, i32 }
%struct.client = type { i64, i64, ptr, i8, i8, i8, i8, i32, ptr, ptr, ptr, ptr, ptr, i64, i64, i32, ptr, i32, i32, ptr, i64, ptr, ptr, ptr, ptr, ptr, i32, i32, i64, ptr, i64, ptr, i64, i64, i64, i32, ptr, i64, i64, i32, i32, i32, i32, i64, i64, ptr, i64, i64, i64, i64, i64, i64, i64, i64, [41 x i8], i32, ptr, i32, i32, i64, %struct.multiState, %struct.blockingState, i64, ptr, ptr, ptr, ptr, ptr, ptr, ptr, ptr, ptr, ptr, ptr, ptr, ptr, ptr, i64, ptr, i64, i32, ptr, ptr, ptr, i64, %struct.listNode, i64, i64, i32, i64, ptr }
%struct.multiState = type { ptr, i32, i32, i32, i64, i32 }
%struct.blockingState = type { i32, i64, i32, ptr, i32, i32, i64, ptr, ptr, i64 }
%struct.listNode = type { ptr, ptr, ptr }
%struct.listIter = type { ptr, i32 }
%struct.list = type { ptr, ptr, ptr, ptr, ptr, i64 }
%struct.watchedKey = type { %struct.listNode, ptr, ptr, ptr, i8 }
%struct.redisDb = type { ptr, ptr, ptr, ptr, ptr, ptr, ptr, i32, i64, i64, ptr }

@server = external global %struct.redisServer, align 8
@.str.10 = private unnamed_addr constant [8 x i8] c"multi.c\00", align 1
@.str.11 = private unnamed_addr constant [16 x i8] c"clients != NULL\00", align 1

; Function Attrs: inlinehint nounwind uwtable
define internal ptr @watchedKeyGetClientNode(ptr noundef %0) #7 {
  %2 = alloca ptr, align 8
  store ptr %0, ptr %2, align 8, !tbaa !58
  %3 = load ptr, ptr %2, align 8, !tbaa !58
  %4 = getelementptr inbounds nuw %struct.watchedKey, ptr %3, i32 0, i32 0
  ret ptr %4
}

; Function Attrs: inlinehint nounwind uwtable
define internal ptr @watchedKeyGetClients(ptr noundef %0) #7 {
  %2 = alloca ptr, align 8
  store ptr %0, ptr %2, align 8, !tbaa !58
  %3 = load ptr, ptr %2, align 8, !tbaa !58
  %4 = getelementptr inbounds nuw %struct.watchedKey, ptr %3, i32 0, i32 0
  %5 = getelementptr inbounds nuw %struct.listNode, ptr %4, i32 0, i32 2
  %6 = load ptr, ptr %5, align 8, !tbaa !105
  ret ptr %6
}

; Function Attrs: nounwind uwtable
define dso_local void @unwatchAllKeys(ptr noundef %0) #0 {
  %2 = alloca ptr, align 8
  %3 = alloca %struct.listIter, align 8
  %4 = alloca ptr, align 8
  %5 = alloca i32, align 4
  %6 = alloca ptr, align 8
  %7 = alloca ptr, align 8
  store ptr %0, ptr %2, align 8, !tbaa !5
  call void @llvm.lifetime.start.p0(i64 16, ptr %3) #8
  call void @llvm.lifetime.start.p0(i64 8, ptr %4) #8
  %8 = load ptr, ptr %2, align 8, !tbaa !5
  %9 = getelementptr inbounds nuw %struct.client, ptr %8, i32 0, i32 63
  %10 = load ptr, ptr %9, align 8, !tbaa !53
  %11 = getelementptr inbounds nuw %struct.list, ptr %10, i32 0, i32 5
  %12 = load i64, ptr %11, align 8, !tbaa !54
  %13 = icmp eq i64 %12, 0
  br i1 %13, label %14, label %15

14:                                               ; preds = %1
  store i32 1, ptr %5, align 4
  br label %70

15:                                               ; preds = %1
  %16 = load ptr, ptr %2, align 8, !tbaa !5
  %17 = getelementptr inbounds nuw %struct.client, ptr %16, i32 0, i32 63
  %18 = load ptr, ptr %17, align 8, !tbaa !53
  call void @listRewind(ptr noundef %18, ptr noundef %3)
  br label %19

19:                                               ; preds = %58, %15
  %20 = call ptr @listNext(ptr noundef %3)
  store ptr %20, ptr %4, align 8, !tbaa !56
  %21 = icmp ne ptr %20, null
  br i1 %21, label %22, label %67

22:                                               ; preds = %19
  call void @llvm.lifetime.start.p0(i64 8, ptr %6) #8
  call void @llvm.lifetime.start.p0(i64 8, ptr %7) #8
  %23 = load ptr, ptr %4, align 8, !tbaa !56
  %24 = getelementptr inbounds nuw %struct.listNode, ptr %23, i32 0, i32 2
  %25 = load ptr, ptr %24, align 8, !tbaa !57
  store ptr %25, ptr %7, align 8, !tbaa !58
  %26 = load ptr, ptr %7, align 8, !tbaa !58
  %27 = call ptr @watchedKeyGetClients(ptr noundef %26)
  store ptr %27, ptr %6, align 8, !tbaa !60
  %28 = load ptr, ptr %6, align 8, !tbaa !60
  %29 = icmp ne ptr %28, null
  %30 = xor i1 %29, true
  %31 = xor i1 %30, true
  %32 = zext i1 %31 to i32
  %33 = sext i32 %32 to i64
  %34 = call i64 @llvm.expect.i64(i64 %33, i64 1)
  %35 = icmp ne i64 %34, 0
  br i1 %35, label %36, label %37

36:                                               ; preds = %22
  br label %40

37:                                               ; preds = %22
  %38 = load ptr, ptr %2, align 8, !tbaa !5
  call void @_serverAssertWithInfo(ptr noundef %38, ptr noundef null, ptr noundef @.str.11, ptr noundef @.str.10, i32 noundef 327)
  call void @abort() #11
  unreachable

39:                                               ; No predecessors!
  br label %40

40:                                               ; preds = %39, %36
  %41 = load ptr, ptr %6, align 8, !tbaa !60
  %42 = load ptr, ptr %7, align 8, !tbaa !58
  %43 = call ptr @watchedKeyGetClientNode(ptr noundef %42)
  call void @listUnlinkNode(ptr noundef %41, ptr noundef %43)
  %44 = load ptr, ptr %6, align 8, !tbaa !60
  %45 = getelementptr inbounds nuw %struct.list, ptr %44, i32 0, i32 5
  %46 = load i64, ptr %45, align 8, !tbaa !54
  %47 = icmp eq i64 %46, 0
  br i1 %47, label %48, label %58

48:                                               ; preds = %40
  %49 = load ptr, ptr %7, align 8, !tbaa !58
  %50 = getelementptr inbounds nuw %struct.watchedKey, ptr %49, i32 0, i32 2
  %51 = load ptr, ptr %50, align 8, !tbaa !61
  %52 = getelementptr inbounds nuw %struct.redisDb, ptr %51, i32 0, i32 6
  %53 = load ptr, ptr %52, align 8, !tbaa !63
  %54 = load ptr, ptr %7, align 8, !tbaa !58
  %55 = getelementptr inbounds nuw %struct.watchedKey, ptr %54, i32 0, i32 1
  %56 = load ptr, ptr %55, align 8, !tbaa !66
  %57 = call i32 @dictDelete(ptr noundef %53, ptr noundef %56)
  br label %58

58:                                               ; preds = %48, %40
  %59 = load ptr, ptr %2, align 8, !tbaa !5
  %60 = getelementptr inbounds nuw %struct.client, ptr %59, i32 0, i32 63
  %61 = load ptr, ptr %60, align 8, !tbaa !53
  %62 = load ptr, ptr %4, align 8, !tbaa !56
  call void @listDelNode(ptr noundef %61, ptr noundef %62)
  %63 = load ptr, ptr %7, align 8, !tbaa !58
  %64 = getelementptr inbounds nuw %struct.watchedKey, ptr %63, i32 0, i32 1
  %65 = load ptr, ptr %64, align 8, !tbaa !66
  call void @decrRefCount(ptr noundef %65)
  %66 = load ptr, ptr %7, align 8, !tbaa !58
  call void @zfree(ptr noundef %66)
  call void @llvm.lifetime.end.p0(i64 8, ptr %7) #8
  call void @llvm.lifetime.end.p0(i64 8, ptr %6) #8
  br label %19, !llvm.loop !67

67:                                               ; preds = %19
  %68 = load i32, ptr getelementptr inbounds nuw (%struct.redisServer, ptr @server, i32 0, i32 379), align 4, !tbaa !68
  %69 = add i32 %68, -1
  store i32 %69, ptr getelementptr inbounds nuw (%struct.redisServer, ptr @server, i32 0, i32 379), align 4, !tbaa !68
  store i32 0, ptr %5, align 4
  br label %70

70:                                               ; preds = %67, %14
  call void @llvm.lifetime.end.p0(i64 8, ptr %4) #8
  call void @llvm.lifetime.end.p0(i64 16, ptr %3) #8
  %71 = load i32, ptr %5, align 4
  switch i32 %71, label %73 [
    i32 0, label %72
    i32 1, label %72
  ]

72:                                               ; preds = %70, %70
  ret void

73:                                               ; preds = %70
  unreachable
}