; Function Attrs: nounwind uwtable
define dso_local void @unwatchAllKeys(ptr noundef %0) local_unnamed_addr #1 {
  %2 = alloca %struct.listIter, align 8
  call void @llvm.lifetime.start.p0(i64 16, ptr nonnull %2) #10
  %3 = getelementptr inbounds nuw i8, ptr %0, i64 560
  %4 = load ptr, ptr %3, align 8, !tbaa !48
  %5 = getelementptr inbounds nuw i8, ptr %4, i64 40
  %6 = load i64, ptr %5, align 8, !tbaa !49
  %7 = icmp eq i64 %6, 0
  br i1 %7, label %34, label %8

8:                                                ; preds = %1
  call void @listRewind(ptr noundef nonnull %4, ptr noundef nonnull %2) #10
  %9 = call ptr @listNext(ptr noundef nonnull %2) #10
  %.not17 = icmp eq ptr %9, null
  br i1 %.not17, label %._crit_edge, label %.lr.ph

.lr.ph:                                           ; preds = %8, %27
  %10 = phi ptr [ %31, %27 ], [ %9, %8 ]
  %11 = getelementptr inbounds nuw i8, ptr %10, i64 16
  %12 = load ptr, ptr %11, align 8, !tbaa !51
  %13 = getelementptr i8, ptr %12, i64 16
  %.val = load ptr, ptr %13, align 8, !tbaa !52
  %.not16 = icmp eq ptr %.val, null
  br i1 %.not16, label %14, label %15, !prof !55

14:                                               ; preds = %.lr.ph
  call void @_serverAssertWithInfo(ptr noundef nonnull %0, ptr noundef null, ptr noundef nonnull @.str.11, ptr noundef nonnull @.str.10, i32 noundef 327) #10
  call void @abort() #13
  unreachable

15:                                               ; preds = %.lr.ph
  call void @listUnlinkNode(ptr noundef nonnull %.val, ptr noundef nonnull %12) #10
  %16 = getelementptr inbounds nuw i8, ptr %.val, i64 40
  %17 = load i64, ptr %16, align 8, !tbaa !49
  %18 = icmp eq i64 %17, 0
  br i1 %18, label %19, label %27

19:                                               ; preds = %15
  %20 = getelementptr inbounds nuw i8, ptr %12, i64 32
  %21 = load ptr, ptr %20, align 8, !tbaa !56
  %22 = getelementptr inbounds nuw i8, ptr %21, i64 48
  %23 = load ptr, ptr %22, align 8, !tbaa !57
  %24 = getelementptr inbounds nuw i8, ptr %12, i64 24
  %25 = load ptr, ptr %24, align 8, !tbaa !60
  %26 = call i32 @dictDelete(ptr noundef %23, ptr noundef %25) #10
  br label %27

27:                                               ; preds = %19, %15
  %28 = load ptr, ptr %3, align 8, !tbaa !48
  call void @listDelNode(ptr noundef %28, ptr noundef nonnull %10) #10
  %29 = getelementptr inbounds nuw i8, ptr %12, i64 24
  %30 = load ptr, ptr %29, align 8, !tbaa !60
  call void @decrRefCount(ptr noundef %30) #10
  call void @zfree(ptr noundef nonnull %12) #10
  %31 = call ptr @listNext(ptr noundef nonnull %2) #10
  %.not = icmp eq ptr %31, null
  br i1 %.not, label %._crit_edge, label %.lr.ph, !llvm.loop !61

._crit_edge:                                      ; preds = %27, %8
  %32 = load i32, ptr getelementptr inbounds nuw (i8, ptr @server, i64 7884), align 4, !tbaa !62
  %33 = add i32 %32, -1
  store i32 %33, ptr getelementptr inbounds nuw (i8, ptr @server, i64 7884), align 4, !tbaa !62
  br label %34

34:                                               ; preds = %1, %._crit_edge
  call void @llvm.lifetime.end.p0(i64 16, ptr nonnull %2) #10
  ret void
}